; Function Attrs: nounwind uwtable
define range(i32 -1, 1) i32 @evdns_base_set_option(ptr noundef %0, ptr noundef readonly captures(none) %1, ptr noundef %2) local_unnamed_addr #2 {
  %4 = getelementptr inbounds nuw i8, ptr %0, i64 344
  %5 = load ptr, ptr %4, align 8
  %.not = icmp eq ptr %5, null
  br i1 %.not, label %9, label %6

6:                                                ; preds = %3
  %7 = load ptr, ptr getelementptr inbounds nuw (i8, ptr @evthread_lock_fns_, i64 24), align 8
  %8 = tail call i32 %7(i32 noundef 0, ptr noundef nonnull %5) #21
  br label %9

9:                                                ; preds = %6, %3
  %10 = tail call fastcc i32 @evdns_base_set_option_impl(ptr noundef nonnull %0, ptr noundef %1, ptr noundef %2, i32 noundef 15)
  %11 = load ptr, ptr %4, align 8
  %.not8 = icmp eq ptr %11, null
  br i1 %.not8, label %15, label %12

12:                                               ; preds = %9
  %13 = load ptr, ptr getelementptr inbounds nuw (i8, ptr @evthread_lock_fns_, i64 32), align 8
  %14 = tail call i32 %13(i32 noundef 0, ptr noundef nonnull %11) #21
  br label %15

15:                                               ; preds = %12, %9
  ret i32 %10
}